; Function Attrs: mustprogress nounwind uwtable
define internal void @_ZN9grpc_core12_GLOBAL__N_121InprocServerTransportD2Ev(ptr noundef nonnull align 16 dereferenceable(176) %this) unnamed_addr #7 align 2 personality ptr @__gxx_personality_v0 {
entry:
  %state_tracker_ = getelementptr inbounds i8, ptr %this, i64 96
  tail call void @_ZN9grpc_core24ConnectivityStateTrackerD1Ev(ptr noundef nonnull align 8 dereferenceable(72) %state_tracker_) #22
  %state_tracker_mu_ = getelementptr inbounds i8, ptr %this, i64 88
  tail call void @_ZN4absl12lts_202308025MutexD1Ev(ptr noundef nonnull align 8 dereferenceable(8) %state_tracker_mu_) #22
  %disconnect_error_ = getelementptr inbounds i8, ptr %this, i64 80
  %0 = load i64, ptr %disconnect_error_, align 16
  %and.i.i.i = and i64 %0, 1
  %cmp.i.i.i = icmp eq i64 %and.i.i.i, 0
  br i1 %cmp.i.i.i, label %_ZN4absl12lts_202308026StatusD2Ev.exit, label %if.then.i.i

if.then.i.i:                                      ; preds = %entry
  invoke void @_ZN4absl12lts_202308026Status15UnrefNonInlinedEm(i64 noundef %0)
          to label %_ZN4absl12lts_202308026StatusD2Ev.exit unwind label %terminate.lpad.i

terminate.lpad.i:                                 ; preds = %if.then.i.i
  %1 = landingpad { ptr, i32 }
          catch ptr null
  %2 = extractvalue { ptr, i32 } %1, 0
  tail call void @__clang_call_terminate(ptr %2) #26
  unreachable

_ZN4absl12lts_202308026StatusD2Ev.exit:           ; preds = %entry, %if.then.i.i
  %accept_ = getelementptr inbounds i8, ptr %this, i64 48
  %manager_.i.i.i = getelementptr inbounds i8, ptr %this, i64 64
  %3 = load ptr, ptr %manager_.i.i.i, align 16
  tail call void %3(i1 noundef zeroext true, ptr noundef nonnull %accept_, ptr noundef nonnull %accept_) #22
  ret void
}